; ModuleID = '55/1571.c'
source_filename = "55/1571.c"
target datalayout = "e-m:e-p270:32:32-p271:32:32-p272:64:64-i64:64-f80:128-n8:16:32:64-S128"
target triple = "x86_64-pc-linux-gnu"

@.str = private unnamed_addr constant [9 x i8] c"%d %s %d\00", align 1
@.str.1 = private unnamed_addr constant [3 x i8] c"%c\00", align 1
@.str.2 = private unnamed_addr constant [2 x i8] c"0\00", align 1

; Function Attrs: noinline nounwind uwtable
define dso_local i32 @main() #0 {
  %1 = alloca i32, align 4
  %2 = alloca i32, align 4
  %3 = alloca i32, align 4
  %4 = alloca i32, align 4
  %5 = alloca i32, align 4
  %6 = alloca i32, align 4
  %7 = alloca i32, align 4
  %8 = alloca i64, align 8
  %9 = alloca [200 x i8], align 16
  %10 = alloca [200 x i8], align 16
  store i32 0, i32* %1, align 4
  %11 = bitcast [200 x i8]* %9 to i8*
  call void @llvm.memset.p0i8.i64(i8* align 16 %11, i8 0, i64 200, i1 false)
  %12 = bitcast [200 x i8]* %10 to i8*
  call void @llvm.memset.p0i8.i64(i8* align 16 %12, i8 0, i64 200, i1 false)
  %13 = getelementptr inbounds [200 x i8], [200 x i8]* %9, i64 0, i64 0
  %14 = call i32 (i8*, ...) @__isoc99_scanf(i8* getelementptr inbounds ([9 x i8], [9 x i8]* @.str, i64 0, i64 0), i32* %2, i8* %13, i32* %3)
  %15 = getelementptr inbounds [200 x i8], [200 x i8]* %9, i64 0, i64 0
  %16 = call i64 @strlen(i8* %15) #5
  %17 = trunc i64 %16 to i32
  store i32 %17, i32* %6, align 4
  store i64 0, i64* %8, align 8
  store i32 0, i32* %5, align 4
  br label %18

18:                                               ; preds = %91, %0
  %19 = load i32, i32* %5, align 4
  %20 = load i32, i32* %6, align 4
  %21 = icmp slt i32 %19, %20
  br i1 %21, label %22, label %94

22:                                               ; preds = %18
  %23 = load i32, i32* %5, align 4
  %24 = sext i32 %23 to i64
  %25 = getelementptr inbounds [200 x i8], [200 x i8]* %9, i64 0, i64 %24
  %26 = load i8, i8* %25, align 1
  %27 = sext i8 %26 to i32
  %28 = icmp sge i32 %27, 48
  br i1 %28, label %29, label %43

29:                                               ; preds = %22
  %30 = load i32, i32* %5, align 4
  %31 = sext i32 %30 to i64
  %32 = getelementptr inbounds [200 x i8], [200 x i8]* %9, i64 0, i64 %31
  %33 = load i8, i8* %32, align 1
  %34 = sext i8 %33 to i32
  %35 = icmp sle i32 %34, 57
  br i1 %35, label %36, label %43

36:                                               ; preds = %29
  %37 = load i32, i32* %5, align 4
  %38 = sext i32 %37 to i64
  %39 = getelementptr inbounds [200 x i8], [200 x i8]* %9, i64 0, i64 %38
  %40 = load i8, i8* %39, align 1
  %41 = sext i8 %40 to i32
  %42 = sub nsw i32 %41, 48
  store i32 %42, i32* %4, align 4
  br label %74

43:                                               ; preds = %29, %22
  %44 = load i32, i32* %5, align 4
  %45 = sext i32 %44 to i64
  %46 = getelementptr inbounds [200 x i8], [200 x i8]* %9, i64 0, i64 %45
  %47 = load i8, i8* %46, align 1
  %48 = sext i8 %47 to i32
  %49 = icmp sge i32 %48, 97
  br i1 %49, label %50, label %65

50:                                               ; preds = %43
  %51 = load i32, i32* %5, align 4
  %52 = sext i32 %51 to i64
  %53 = getelementptr inbounds [200 x i8], [200 x i8]* %9, i64 0, i64 %52
  %54 = load i8, i8* %53, align 1
  %55 = sext i8 %54 to i32
  %56 = icmp sle i32 %55, 122
  br i1 %56, label %57, label %65

57:                                               ; preds = %50
  %58 = load i32, i32* %5, align 4
  %59 = sext i32 %58 to i64
  %60 = getelementptr inbounds [200 x i8], [200 x i8]* %9, i64 0, i64 %59
  %61 = load i8, i8* %60, align 1
  %62 = sext i8 %61 to i32
  %63 = sub nsw i32 %62, 97
  %64 = add nsw i32 %63, 10
  store i32 %64, i32* %4, align 4
  br label %73

65:                                               ; preds = %50, %43
  %66 = load i32, i32* %5, align 4
  %67 = sext i32 %66 to i64
  %68 = getelementptr inbounds [200 x i8], [200 x i8]* %9, i64 0, i64 %67
  %69 = load i8, i8* %68, align 1
  %70 = sext i8 %69 to i32
  %71 = sub nsw i32 %70, 65
  %72 = add nsw i32 %71, 10
  store i32 %72, i32* %4, align 4
  br label %73

73:                                               ; preds = %65, %57
  br label %74

74:                                               ; preds = %73, %36
  %75 = load i64, i64* %8, align 8
  %76 = load i32, i32* %2, align 4
  %77 = sitofp i32 %76 to double
  %78 = fmul double 1.000000e+00, %77
  %79 = load i32, i32* %6, align 4
  %80 = load i32, i32* %5, align 4
  %81 = sub nsw i32 %79, %80
  %82 = sub nsw i32 %81, 1
  %83 = sitofp i32 %82 to double
  %84 = fmul double 1.000000e+00, %83
  %85 = call double @pow(double %78, double %84) #6
  %86 = fptoui double %85 to i64
  %87 = load i32, i32* %4, align 4
  %88 = sext i32 %87 to i64
  %89 = mul i64 %86, %88
  %90 = add i64 %75, %89
  store i64 %90, i64* %8, align 8
  br label %91

91:                                               ; preds = %74
  %92 = load i32, i32* %5, align 4
  %93 = add nsw i32 %92, 1
  store i32 %93, i32* %5, align 4
  br label %18

94:                                               ; preds = %18
  store i32 0, i32* %5, align 4
  br label %95

95:                                               ; preds = %130, %94
  %96 = load i64, i64* %8, align 8
  %97 = icmp ugt i64 %96, 0
  br i1 %97, label %98, label %133

98:                                               ; preds = %95
  %99 = load i64, i64* %8, align 8
  %100 = load i32, i32* %3, align 4
  %101 = sext i32 %100 to i64
  %102 = urem i64 %99, %101
  %103 = icmp ule i64 %102, 9
  br i1 %103, label %104, label %114

104:                                              ; preds = %98
  %105 = load i64, i64* %8, align 8
  %106 = load i32, i32* %3, align 4
  %107 = sext i32 %106 to i64
  %108 = urem i64 %105, %107
  %109 = add i64 %108, 48
  %110 = trunc i64 %109 to i8
  %111 = load i32, i32* %5, align 4
  %112 = sext i32 %111 to i64
  %113 = getelementptr inbounds [200 x i8], [200 x i8]* %10, i64 0, i64 %112
  store i8 %110, i8* %113, align 1
  br label %125

114:                                              ; preds = %98
  %115 = load i64, i64* %8, align 8
  %116 = load i32, i32* %3, align 4
  %117 = sext i32 %116 to i64
  %118 = urem i64 %115, %117
  %119 = sub i64 %118, 10
  %120 = add i64 %119, 65
  %121 = trunc i64 %120 to i8
  %122 = load i32, i32* %5, align 4
  %123 = sext i32 %122 to i64
  %124 = getelementptr inbounds [200 x i8], [200 x i8]* %10, i64 0, i64 %123
  store i8 %121, i8* %124, align 1
  br label %125

125:                                              ; preds = %114, %104
  %126 = load i64, i64* %8, align 8
  %127 = load i32, i32* %3, align 4
  %128 = sext i32 %127 to i64
  %129 = udiv i64 %126, %128
  store i64 %129, i64* %8, align 8
  br label %130

130:                                              ; preds = %125
  %131 = load i32, i32* %5, align 4
  %132 = add nsw i32 %131, 1
  store i32 %132, i32* %5, align 4
  br label %95

133:                                              ; preds = %95
  %134 = getelementptr inbounds [200 x i8], [200 x i8]* %10, i64 0, i64 0
  %135 = call i64 @strlen(i8* %134) #5
  %136 = sub i64 %135, 1
  %137 = trunc i64 %136 to i32
  store i32 %137, i32* %7, align 4
  br label %138

138:                                              ; preds = %148, %133
  %139 = load i32, i32* %7, align 4
  %140 = icmp sge i32 %139, 0
  br i1 %140, label %141, label %151

141:                                              ; preds = %138
  %142 = load i32, i32* %7, align 4
  %143 = sext i32 %142 to i64
  %144 = getelementptr inbounds [200 x i8], [200 x i8]* %10, i64 0, i64 %143
  %145 = load i8, i8* %144, align 1
  %146 = sext i8 %145 to i32
  %147 = call i32 (i8*, ...) @printf(i8* getelementptr inbounds ([3 x i8], [3 x i8]* @.str.1, i64 0, i64 0), i32 %146)
  br label %148

148:                                              ; preds = %141
  %149 = load i32, i32* %7, align 4
  %150 = add nsw i32 %149, -1
  store i32 %150, i32* %7, align 4
  br label %138

151:                                              ; preds = %138
  %152 = getelementptr inbounds [200 x i8], [200 x i8]* %9, i64 0, i64 0
  %153 = load i8, i8* %152, align 16
  %154 = sext i8 %153 to i32
  %155 = icmp eq i32 %154, 48
  br i1 %155, label %156, label %158

156:                                              ; preds = %151
  %157 = call i32 (i8*, ...) @printf(i8* getelementptr inbounds ([2 x i8], [2 x i8]* @.str.2, i64 0, i64 0))
  br label %158

158:                                              ; preds = %156, %151
  ret i32 0
}

; Function Attrs: argmemonly nounwind willreturn
declare void @llvm.memset.p0i8.i64(i8* nocapture writeonly, i8, i64, i1 immarg) #1

declare dso_local i32 @__isoc99_scanf(i8*, ...) #2

; Function Attrs: nounwind readonly
declare dso_local i64 @strlen(i8*) #3

; Function Attrs: nounwind
declare dso_local double @pow(double, double) #4

declare dso_local i32 @printf(i8*, ...) #2


!llvm.module.flags = !{!0}
!llvm.ident = !{!1}

!0 = !{i32 1, !"wchar_size", i32 4}
!1 = !{!"clang version 10.0.0-4ubuntu1 "}
